target datalayout = "e-m:e-p270:32:32-p271:32:32-p272:64:64-i64:64-i128:128-f80:128-n8:16:32:64-S128"
target triple = "x86_64-pc-linux-gnu"

%"class.llvm::SmallVectorBase" = type { ptr, i32, i32 }
%"class.llvm::AnalysisUsage" = type <{ %"class.llvm::SmallVector.272", %"class.llvm::SmallVector.277", %"class.llvm::SmallVector.277", %"class.llvm::SmallVector.279", i8, [7 x i8] }>
%"class.llvm::SmallVector.272" = type { %"class.llvm::SmallVectorImpl.273", %"struct.llvm::SmallVectorStorage.276" }
%"class.llvm::SmallVectorImpl.273" = type { %"class.llvm::SmallVectorTemplateBase.274" }
%"class.llvm::SmallVectorTemplateBase.274" = type { %"class.llvm::SmallVectorTemplateCommon.275" }
%"class.llvm::SmallVectorTemplateCommon.275" = type { %"class.llvm::SmallVectorBase" }
%"struct.llvm::SmallVectorStorage.276" = type { [64 x i8] }
%"class.llvm::SmallVector.277" = type { %"class.llvm::SmallVectorImpl.273", %"struct.llvm::SmallVectorStorage.278" }
%"struct.llvm::SmallVectorStorage.278" = type { [16 x i8] }
%"class.llvm::SmallVector.279" = type { %"class.llvm::SmallVectorImpl.273" }

@_ZN4llvm22AssumptionCacheTracker2IDE = external global i8, align 1
@_ZN4llvm24DominatorTreeWrapperPass2IDE = external global i8, align 1
@_ZN4llvm20AAResultsWrapperPass2IDE = external global i8, align 1
@_ZN4llvm28TargetLibraryInfoWrapperPass2IDE = external global i8, align 1

; Function Attrs: mustprogress nounwind uwtable
define linkonce_odr hidden noundef nonnull align 8 dereferenceable(161) ptr @_ZN4llvm13AnalysisUsage21addRequiredTransitiveINS_28TargetLibraryInfoWrapperPassEEERS0_v(ptr noundef nonnull align 8 dereferenceable(161) %0) #1 comdat align 2 {
  %2 = alloca ptr, align 8
  store ptr %0, ptr %2, align 8
  %3 = load ptr, ptr %2, align 8
  %4 = call noundef nonnull align 8 dereferenceable(161) ptr @_ZN4llvm13AnalysisUsage23addRequiredTransitiveIDERc(ptr noundef nonnull align 8 dereferenceable(161) %3, ptr noundef nonnull align 1 dereferenceable(1) @_ZN4llvm28TargetLibraryInfoWrapperPass2IDE)
  ret ptr %4
}

; Function Attrs: mustprogress nounwind uwtable
define linkonce_odr hidden noundef nonnull align 8 dereferenceable(161) ptr @_ZN4llvm13AnalysisUsage21addRequiredTransitiveINS_20AAResultsWrapperPassEEERS0_v(ptr noundef nonnull align 8 dereferenceable(161) %0) #1 comdat align 2 {
  %2 = alloca ptr, align 8
  store ptr %0, ptr %2, align 8
  %3 = load ptr, ptr %2, align 8
  %4 = call noundef nonnull align 8 dereferenceable(161) ptr @_ZN4llvm13AnalysisUsage23addRequiredTransitiveIDERc(ptr noundef nonnull align 8 dereferenceable(161) %3, ptr noundef nonnull align 1 dereferenceable(1) @_ZN4llvm20AAResultsWrapperPass2IDE)
  ret ptr %4
}

; Function Attrs: mustprogress nounwind uwtable
define linkonce_odr hidden noundef nonnull align 8 dereferenceable(161) ptr @_ZN4llvm13AnalysisUsage11addRequiredINS_24DominatorTreeWrapperPassEEERS0_v(ptr noundef nonnull align 8 dereferenceable(161) %0) #1 comdat align 2 {
  %2 = alloca ptr, align 8
  store ptr %0, ptr %2, align 8
  %3 = load ptr, ptr %2, align 8
  %4 = call noundef nonnull align 8 dereferenceable(161) ptr @_ZN4llvm13AnalysisUsage13addRequiredIDERc(ptr noundef nonnull align 8 dereferenceable(161) %3, ptr noundef nonnull align 1 dereferenceable(1) @_ZN4llvm24DominatorTreeWrapperPass2IDE)
  ret ptr %4
}

; Function Attrs: mustprogress nounwind uwtable
define linkonce_odr hidden noundef nonnull align 8 dereferenceable(161) ptr @_ZN4llvm13AnalysisUsage11addRequiredINS_22AssumptionCacheTrackerEEERS0_v(ptr noundef nonnull align 8 dereferenceable(161) %0) #1 comdat align 2 {
  %2 = alloca ptr, align 8
  store ptr %0, ptr %2, align 8
  %3 = load ptr, ptr %2, align 8
  %4 = call noundef nonnull align 8 dereferenceable(161) ptr @_ZN4llvm13AnalysisUsage13addRequiredIDERc(ptr noundef nonnull align 8 dereferenceable(161) %3, ptr noundef nonnull align 1 dereferenceable(1) @_ZN4llvm22AssumptionCacheTracker2IDE)
  ret ptr %4
}

; Function Attrs: mustprogress nounwind uwtable
define linkonce_odr hidden void @_ZN4llvm13AnalysisUsage15setPreservesAllEv(ptr noundef nonnull align 8 dereferenceable(161) %0) #1 comdat align 2 {
  %2 = alloca ptr, align 8
  store ptr %0, ptr %2, align 8
  %3 = load ptr, ptr %2, align 8
  %4 = getelementptr inbounds nuw %"class.llvm::AnalysisUsage", ptr %3, i32 0, i32 4
  store i8 1, ptr %4, align 8
  ret void
}

; Function Attrs: mustprogress nounwind uwtable
define dso_local void @_ZNK4llvm27MemoryDependenceWrapperPass16getAnalysisUsageERNS_13AnalysisUsageE(ptr noundef nonnull align 8 dereferenceable(488) %0, ptr noundef nonnull align 8 dereferenceable(161) %1) unnamed_addr #1 align 2 {
  %3 = alloca ptr, align 8
  %4 = alloca ptr, align 8
  store ptr %0, ptr %3, align 8
  store ptr %1, ptr %4, align 8
  %5 = load ptr, ptr %4, align 8
  call void @_ZN4llvm13AnalysisUsage15setPreservesAllEv(ptr noundef nonnull align 8 dereferenceable(161) %5)
  %6 = load ptr, ptr %4, align 8
  %7 = call noundef nonnull align 8 dereferenceable(161) ptr @_ZN4llvm13AnalysisUsage11addRequiredINS_22AssumptionCacheTrackerEEERS0_v(ptr noundef nonnull align 8 dereferenceable(161) %6)
  %8 = load ptr, ptr %4, align 8
  %9 = call noundef nonnull align 8 dereferenceable(161) ptr @_ZN4llvm13AnalysisUsage11addRequiredINS_24DominatorTreeWrapperPassEEERS0_v(ptr noundef nonnull align 8 dereferenceable(161) %8)
  %10 = load ptr, ptr %4, align 8
  %11 = call noundef nonnull align 8 dereferenceable(161) ptr @_ZN4llvm13AnalysisUsage21addRequiredTransitiveINS_20AAResultsWrapperPassEEERS0_v(ptr noundef nonnull align 8 dereferenceable(161) %10)
  %12 = load ptr, ptr %4, align 8
  %13 = call noundef nonnull align 8 dereferenceable(161) ptr @_ZN4llvm13AnalysisUsage21addRequiredTransitiveINS_28TargetLibraryInfoWrapperPassEEERS0_v(ptr noundef nonnull align 8 dereferenceable(161) %12)
  ret void
}