; Function Attrs: mustprogress nounwind uwtable
define dso_local void @_ZNK4llvm27MemoryDependenceWrapperPass16getAnalysisUsageERNS_13AnalysisUsageE(ptr nocapture nonnull readnone align 8 %0, ptr noundef nonnull align 8 dereferenceable(161) %1) unnamed_addr #0 align 2 {
  %3 = getelementptr inbounds nuw i8, ptr %1, i64 160
  store i8 1, ptr %3, align 8
  %4 = tail call noundef nonnull align 8 dereferenceable(161) ptr @_ZN4llvm13AnalysisUsage13addRequiredIDERc(ptr noundef nonnull align 8 dereferenceable(161) %1, ptr noundef nonnull align 1 dereferenceable(1) @_ZN4llvm22AssumptionCacheTracker2IDE) #20
  %5 = tail call noundef nonnull align 8 dereferenceable(161) ptr @_ZN4llvm13AnalysisUsage13addRequiredIDERc(ptr noundef nonnull align 8 dereferenceable(161) %1, ptr noundef nonnull align 1 dereferenceable(1) @_ZN4llvm24DominatorTreeWrapperPass2IDE) #20
  %6 = tail call noundef nonnull align 8 dereferenceable(161) ptr @_ZN4llvm13AnalysisUsage23addRequiredTransitiveIDERc(ptr noundef nonnull align 8 dereferenceable(161) %1, ptr noundef nonnull align 1 dereferenceable(1) @_ZN4llvm20AAResultsWrapperPass2IDE) #20
  %7 = tail call noundef nonnull align 8 dereferenceable(161) ptr @_ZN4llvm13AnalysisUsage23addRequiredTransitiveIDERc(ptr noundef nonnull align 8 dereferenceable(161) %1, ptr noundef nonnull align 1 dereferenceable(1) @_ZN4llvm28TargetLibraryInfoWrapperPass2IDE) #20
  ret void
}